; Function Attrs: mustprogress nounwind uwtable
define dso_local void @_ZN18btStaticPlaneShapeD0Ev(ptr noundef nonnull align 8 dereferenceable(104) %this) unnamed_addr #3 align 2 personality ptr @__gxx_personality_v0 {
entry:
  tail call void @_ZN14btConcaveShapeD2Ev(ptr noundef nonnull align 8 dereferenceable(36) %this) #13
  invoke void @_Z21btAlignedFreeInternalPv(ptr noundef nonnull %this)
          to label %_ZN18btStaticPlaneShapedlEPv.exit unwind label %terminate.lpad.i

terminate.lpad.i:                                 ; preds = %entry
  %0 = landingpad { ptr, i32 }
          catch ptr null
  %1 = extractvalue { ptr, i32 } %0, 0
  tail call void @__clang_call_terminate(ptr %1) #14
  unreachable

_ZN18btStaticPlaneShapedlEPv.exit:                ; preds = %entry
  ret void
}